; Function Attrs: nounwind uwtable
define internal fastcc range(i32 2, 6) i32 @exec_command_copy(ptr noundef %0, i1 noundef zeroext %1) unnamed_addr #0 {
  %3 = tail call ptr @psql_scan_slash_option(ptr noundef %0, i32 noundef 4, ptr noundef null, i1 noundef zeroext false) #16
  br i1 %1, label %4, label %7

4:                                                ; preds = %2
  %5 = tail call zeroext i1 @do_copy(ptr noundef %3) #16
  tail call void @free(ptr noundef %3) #16
  %6 = select i1 %5, i32 2, i32 5
  br label %8

7:                                                ; preds = %2
  tail call void @free(ptr noundef %3) #16
  br label %8

8:                                                ; preds = %7, %4
  %.0 = phi i32 [ %6, %4 ], [ 2, %7 ]
  ret i32 %.0
}